target datalayout = "e-m:e-p270:32:32-p271:32:32-p272:64:64-i64:64-i128:128-f80:128-n8:16:32:64-S128"
target triple = "x86_64-pc-linux-gnu"

%struct.DdManager = type { %struct.DdNode, ptr, ptr, ptr, ptr, ptr, ptr, ptr, i32, i32, double, double, double, i32, i32, i32, i32, i32, i32, ptr, ptr, %struct.DdSubtable, i32, i32, i32, i32, i32, i32, i32, double, i32, i32, i32, ptr, i64, double, i32, ptr, ptr, ptr, ptr, ptr, ptr, ptr, i32, ptr, ptr, ptr, ptr, ptr, ptr, i32, i32, i32, double, i32, i32, i32, i32, double, double, i32, i32, i32, i32, i32, i32, i32, i32, i32, ptr, ptr, i32, i32, i32, i32, i32, i32, ptr, ptr, ptr, ptr, ptr, ptr, ptr, ptr, i32, i64, i64, i64, i32, i64, i64, double, double, double, double, double, double, i32, ptr, ptr, i64 }
%struct.DdNode = type { i32, i32, ptr, %union.anon, i64 }
%union.anon = type { %struct.DdChildren }
%struct.DdChildren = type { ptr, ptr }
%struct.DdSubtable = type { ptr, i32, i32, i32, i32, i32, i32, i32, i32, i32, i32, i32 }

; Function Attrs: nounwind uwtable
define internal ptr @cuddBddPermuteRecur(ptr noundef %0, ptr noundef %1, ptr noundef %2, ptr noundef %3) #0 {
  %5 = alloca ptr, align 8
  %6 = alloca ptr, align 8
  %7 = alloca ptr, align 8
  %8 = alloca ptr, align 8
  %9 = alloca ptr, align 8
  %10 = alloca ptr, align 8
  %11 = alloca ptr, align 8
  %12 = alloca ptr, align 8
  %13 = alloca ptr, align 8
  %14 = alloca i32, align 4
  %15 = alloca i32, align 4
  %16 = alloca i64, align 8
  store ptr %0, ptr %6, align 8, !tbaa !3
  store ptr %1, ptr %7, align 8, !tbaa !38
  store ptr %2, ptr %8, align 8, !tbaa !8
  store ptr %3, ptr %9, align 8, !tbaa !37
  call void @llvm.lifetime.start.p0(i64 8, ptr %10) #6
  call void @llvm.lifetime.start.p0(i64 8, ptr %11) #6
  call void @llvm.lifetime.start.p0(i64 8, ptr %12) #6
  call void @llvm.lifetime.start.p0(i64 8, ptr %13) #6
  call void @llvm.lifetime.start.p0(i64 4, ptr %14) #6
  %17 = load ptr, ptr %8, align 8, !tbaa !8
  %18 = ptrtoint ptr %17 to i64
  %19 = and i64 %18, -2
  %20 = inttoptr i64 %19 to ptr
  store ptr %20, ptr %10, align 8, !tbaa !8
  %21 = load ptr, ptr %10, align 8, !tbaa !8
  %22 = getelementptr inbounds nuw %struct.DdNode, ptr %21, i32 0, i32 0
  %23 = load i32, ptr %22, align 8, !tbaa !33
  %24 = icmp eq i32 %23, 2147483647
  br i1 %24, label %25, label %27

25:                                               ; preds = %4
  %26 = load ptr, ptr %8, align 8, !tbaa !8
  store ptr %26, ptr %5, align 8
  store i32 1, ptr %15, align 4
  br label %166

27:                                               ; preds = %4
  %28 = load ptr, ptr %10, align 8, !tbaa !8
  %29 = getelementptr inbounds nuw %struct.DdNode, ptr %28, i32 0, i32 1
  %30 = load i32, ptr %29, align 4, !tbaa !35
  %31 = icmp ne i32 %30, 1
  br i1 %31, label %32, label %47

32:                                               ; preds = %27
  %33 = load ptr, ptr %7, align 8, !tbaa !38
  %34 = load ptr, ptr %10, align 8, !tbaa !8
  %35 = call ptr @cuddHashTableLookup1(ptr noundef %33, ptr noundef %34)
  store ptr %35, ptr %13, align 8, !tbaa !8
  %36 = icmp ne ptr %35, null
  br i1 %36, label %37, label %47

37:                                               ; preds = %32
  %38 = load ptr, ptr %13, align 8, !tbaa !8
  %39 = ptrtoint ptr %38 to i64
  %40 = load ptr, ptr %10, align 8, !tbaa !8
  %41 = load ptr, ptr %8, align 8, !tbaa !8
  %42 = icmp ne ptr %40, %41
  %43 = zext i1 %42 to i32
  %44 = sext i32 %43 to i64
  %45 = xor i64 %39, %44
  %46 = inttoptr i64 %45 to ptr
  store ptr %46, ptr %5, align 8
  store i32 1, ptr %15, align 4
  br label %166

47:                                               ; preds = %32, %27
  %48 = load ptr, ptr %6, align 8, !tbaa !3
  %49 = load ptr, ptr %7, align 8, !tbaa !38
  %50 = load ptr, ptr %10, align 8, !tbaa !8
  %51 = getelementptr inbounds nuw %struct.DdNode, ptr %50, i32 0, i32 3
  %52 = getelementptr inbounds nuw %struct.DdChildren, ptr %51, i32 0, i32 0
  %53 = load ptr, ptr %52, align 8, !tbaa !34
  %54 = load ptr, ptr %9, align 8, !tbaa !37
  %55 = call ptr @cuddBddPermuteRecur(ptr noundef %48, ptr noundef %49, ptr noundef %53, ptr noundef %54)
  store ptr %55, ptr %11, align 8, !tbaa !8
  %56 = load ptr, ptr %11, align 8, !tbaa !8
  %57 = icmp eq ptr %56, null
  br i1 %57, label %58, label %59

58:                                               ; preds = %47
  store ptr null, ptr %5, align 8
  store i32 1, ptr %15, align 4
  br label %166

59:                                               ; preds = %47
  %60 = load ptr, ptr %11, align 8, !tbaa !8
  %61 = ptrtoint ptr %60 to i64
  %62 = and i64 %61, -2
  %63 = inttoptr i64 %62 to ptr
  %64 = getelementptr inbounds nuw %struct.DdNode, ptr %63, i32 0, i32 1
  %65 = load i32, ptr %64, align 4, !tbaa !35
  %66 = add i32 %65, 1
  store i32 %66, ptr %64, align 4, !tbaa !35
  %67 = load ptr, ptr %6, align 8, !tbaa !3
  %68 = load ptr, ptr %7, align 8, !tbaa !38
  %69 = load ptr, ptr %10, align 8, !tbaa !8
  %70 = getelementptr inbounds nuw %struct.DdNode, ptr %69, i32 0, i32 3
  %71 = getelementptr inbounds nuw %struct.DdChildren, ptr %70, i32 0, i32 1
  %72 = load ptr, ptr %71, align 8, !tbaa !34
  %73 = load ptr, ptr %9, align 8, !tbaa !37
  %74 = call ptr @cuddBddPermuteRecur(ptr noundef %67, ptr noundef %68, ptr noundef %72, ptr noundef %73)
  store ptr %74, ptr %12, align 8, !tbaa !8
  %75 = load ptr, ptr %12, align 8, !tbaa !8
  %76 = icmp eq ptr %75, null
  br i1 %76, label %77, label %80

77:                                               ; preds = %59
  %78 = load ptr, ptr %6, align 8, !tbaa !3
  %79 = load ptr, ptr %11, align 8, !tbaa !8
  call void @Cudd_IterDerefBdd(ptr noundef %78, ptr noundef %79)
  store ptr null, ptr %5, align 8
  store i32 1, ptr %15, align 4
  br label %166

80:                                               ; preds = %59
  %81 = load ptr, ptr %12, align 8, !tbaa !8
  %82 = ptrtoint ptr %81 to i64
  %83 = and i64 %82, -2
  %84 = inttoptr i64 %83 to ptr
  %85 = getelementptr inbounds nuw %struct.DdNode, ptr %84, i32 0, i32 1
  %86 = load i32, ptr %85, align 4, !tbaa !35
  %87 = add i32 %86, 1
  store i32 %87, ptr %85, align 4, !tbaa !35
  %88 = load ptr, ptr %9, align 8, !tbaa !37
  %89 = load ptr, ptr %10, align 8, !tbaa !8
  %90 = getelementptr inbounds nuw %struct.DdNode, ptr %89, i32 0, i32 0
  %91 = load i32, ptr %90, align 8, !tbaa !33
  %92 = zext i32 %91 to i64
  %93 = getelementptr inbounds nuw i32, ptr %88, i64 %92
  %94 = load i32, ptr %93, align 4, !tbaa !10
  store i32 %94, ptr %14, align 4, !tbaa !10
  %95 = load ptr, ptr %6, align 8, !tbaa !3
  %96 = load ptr, ptr %6, align 8, !tbaa !3
  %97 = getelementptr inbounds nuw %struct.DdManager, ptr %96, i32 0, i32 41
  %98 = load ptr, ptr %97, align 8, !tbaa !28
  %99 = load i32, ptr %14, align 4, !tbaa !10
  %100 = sext i32 %99 to i64
  %101 = getelementptr inbounds ptr, ptr %98, i64 %100
  %102 = load ptr, ptr %101, align 8, !tbaa !8
  %103 = load ptr, ptr %11, align 8, !tbaa !8
  %104 = load ptr, ptr %12, align 8, !tbaa !8
  %105 = call ptr @cuddBddIteRecur(ptr noundef %95, ptr noundef %102, ptr noundef %103, ptr noundef %104)
  store ptr %105, ptr %13, align 8, !tbaa !8
  %106 = load ptr, ptr %13, align 8, !tbaa !8
  %107 = icmp eq ptr %106, null
  br i1 %107, label %108, label %113

108:                                              ; preds = %80
  %109 = load ptr, ptr %6, align 8, !tbaa !3
  %110 = load ptr, ptr %11, align 8, !tbaa !8
  call void @Cudd_IterDerefBdd(ptr noundef %109, ptr noundef %110)
  %111 = load ptr, ptr %6, align 8, !tbaa !3
  %112 = load ptr, ptr %12, align 8, !tbaa !8
  call void @Cudd_IterDerefBdd(ptr noundef %111, ptr noundef %112)
  store ptr null, ptr %5, align 8
  store i32 1, ptr %15, align 4
  br label %166

113:                                              ; preds = %80
  %114 = load ptr, ptr %13, align 8, !tbaa !8
  %115 = ptrtoint ptr %114 to i64
  %116 = and i64 %115, -2
  %117 = inttoptr i64 %116 to ptr
  %118 = getelementptr inbounds nuw %struct.DdNode, ptr %117, i32 0, i32 1
  %119 = load i32, ptr %118, align 4, !tbaa !35
  %120 = add i32 %119, 1
  store i32 %120, ptr %118, align 4, !tbaa !35
  %121 = load ptr, ptr %6, align 8, !tbaa !3
  %122 = load ptr, ptr %11, align 8, !tbaa !8
  call void @Cudd_IterDerefBdd(ptr noundef %121, ptr noundef %122)
  %123 = load ptr, ptr %6, align 8, !tbaa !3
  %124 = load ptr, ptr %12, align 8, !tbaa !8
  call void @Cudd_IterDerefBdd(ptr noundef %123, ptr noundef %124)
  %125 = load ptr, ptr %10, align 8, !tbaa !8
  %126 = getelementptr inbounds nuw %struct.DdNode, ptr %125, i32 0, i32 1
  %127 = load i32, ptr %126, align 4, !tbaa !35
  %128 = icmp ne i32 %127, 1
  br i1 %128, label %129, label %149

129:                                              ; preds = %113
  call void @llvm.lifetime.start.p0(i64 8, ptr %16) #6
  %130 = load ptr, ptr %10, align 8, !tbaa !8
  %131 = getelementptr inbounds nuw %struct.DdNode, ptr %130, i32 0, i32 1
  %132 = load i32, ptr %131, align 4, !tbaa !35
  %133 = zext i32 %132 to i64
  store i64 %133, ptr %16, align 8, !tbaa !43
  %134 = load i64, ptr %16, align 8, !tbaa !43
  %135 = add nsw i64 %134, -1
  store i64 %135, ptr %16, align 8, !tbaa !43
  %136 = load ptr, ptr %7, align 8, !tbaa !38
  %137 = load ptr, ptr %10, align 8, !tbaa !8
  %138 = load ptr, ptr %13, align 8, !tbaa !8
  %139 = load i64, ptr %16, align 8, !tbaa !43
  %140 = call i32 @cuddHashTableInsert1(ptr noundef %136, ptr noundef %137, ptr noundef %138, i64 noundef %139)
  %141 = icmp ne i32 %140, 0
  br i1 %141, label %145, label %142

142:                                              ; preds = %129
  %143 = load ptr, ptr %6, align 8, !tbaa !3
  %144 = load ptr, ptr %13, align 8, !tbaa !8
  call void @Cudd_IterDerefBdd(ptr noundef %143, ptr noundef %144)
  store ptr null, ptr %5, align 8
  store i32 1, ptr %15, align 4
  br label %146

145:                                              ; preds = %129
  store i32 0, ptr %15, align 4
  br label %146

146:                                              ; preds = %145, %142
  call void @llvm.lifetime.end.p0(i64 8, ptr %16) #6
  %147 = load i32, ptr %15, align 4
  switch i32 %147, label %166 [
    i32 0, label %148
  ]

148:                                              ; preds = %146
  br label %149

149:                                              ; preds = %148, %113
  %150 = load ptr, ptr %13, align 8, !tbaa !8
  %151 = ptrtoint ptr %150 to i64
  %152 = and i64 %151, -2
  %153 = inttoptr i64 %152 to ptr
  %154 = getelementptr inbounds nuw %struct.DdNode, ptr %153, i32 0, i32 1
  %155 = load i32, ptr %154, align 4, !tbaa !35
  %156 = add i32 %155, -1
  store i32 %156, ptr %154, align 4, !tbaa !35
  %157 = load ptr, ptr %13, align 8, !tbaa !8
  %158 = ptrtoint ptr %157 to i64
  %159 = load ptr, ptr %10, align 8, !tbaa !8
  %160 = load ptr, ptr %8, align 8, !tbaa !8
  %161 = icmp ne ptr %159, %160
  %162 = zext i1 %161 to i32
  %163 = sext i32 %162 to i64
  %164 = xor i64 %158, %163
  %165 = inttoptr i64 %164 to ptr
  store ptr %165, ptr %5, align 8
  store i32 1, ptr %15, align 4
  br label %166

166:                                              ; preds = %149, %146, %108, %77, %58, %37, %25
  call void @llvm.lifetime.end.p0(i64 4, ptr %14) #6
  call void @llvm.lifetime.end.p0(i64 8, ptr %13) #6
  call void @llvm.lifetime.end.p0(i64 8, ptr %12) #6
  call void @llvm.lifetime.end.p0(i64 8, ptr %11) #6
  call void @llvm.lifetime.end.p0(i64 8, ptr %10) #6
  %167 = load ptr, ptr %5, align 8
  ret ptr %167
}