; Function Attrs: nounwind uwtable
define internal fastcc ptr @cuddBddPermuteRecur(ptr noundef %0, ptr noundef nonnull %1, ptr noundef %2, ptr noundef %3) unnamed_addr #0 {
  %5 = ptrtoint ptr %2 to i64
  %6 = and i64 %5, -2
  %7 = inttoptr i64 %6 to ptr
  %8 = load i32, ptr %7, align 8, !tbaa !30
  %9 = icmp eq i32 %8, 2147483647
  br i1 %9, label %76, label %10

10:                                               ; preds = %4
  %11 = getelementptr inbounds nuw i8, ptr %7, i64 4
  %12 = load i32, ptr %11, align 4, !tbaa !33
  %.not = icmp eq i32 %12, 1
  br i1 %.not, label %21, label %13

13:                                               ; preds = %10
  %14 = tail call ptr @cuddHashTableLookup1(ptr noundef nonnull %1, ptr noundef nonnull %7) #7
  %.not60 = icmp eq ptr %14, null
  br i1 %.not60, label %21, label %15

15:                                               ; preds = %13
  %16 = ptrtoint ptr %14 to i64
  %17 = icmp ne ptr %2, %7
  %18 = zext i1 %17 to i64
  %19 = xor i64 %16, %18
  %20 = inttoptr i64 %19 to ptr
  br label %76

21:                                               ; preds = %13, %10
  %22 = getelementptr inbounds nuw i8, ptr %7, i64 16
  %23 = load ptr, ptr %22, align 8, !tbaa !32
  %24 = tail call fastcc ptr @cuddBddPermuteRecur(ptr noundef %0, ptr noundef %1, ptr noundef %23, ptr noundef %3)
  %25 = icmp eq ptr %24, null
  br i1 %25, label %76, label %26

26:                                               ; preds = %21
  %27 = ptrtoint ptr %24 to i64
  %28 = and i64 %27, -2
  %29 = inttoptr i64 %28 to ptr
  %30 = getelementptr inbounds nuw i8, ptr %29, i64 4
  %31 = load i32, ptr %30, align 4, !tbaa !33
  %32 = add i32 %31, 1
  store i32 %32, ptr %30, align 4, !tbaa !33
  %33 = getelementptr inbounds nuw i8, ptr %7, i64 24
  %34 = load ptr, ptr %33, align 8, !tbaa !32
  %35 = tail call fastcc ptr @cuddBddPermuteRecur(ptr noundef %0, ptr noundef %1, ptr noundef %34, ptr noundef %3)
  %36 = icmp eq ptr %35, null
  br i1 %36, label %37, label %38

37:                                               ; preds = %26
  tail call void @Cudd_IterDerefBdd(ptr noundef %0, ptr noundef nonnull %24) #7
  br label %76

38:                                               ; preds = %26
  %39 = ptrtoint ptr %35 to i64
  %40 = and i64 %39, -2
  %41 = inttoptr i64 %40 to ptr
  %42 = getelementptr inbounds nuw i8, ptr %41, i64 4
  %43 = load i32, ptr %42, align 4, !tbaa !33
  %44 = add i32 %43, 1
  store i32 %44, ptr %42, align 4, !tbaa !33
  %45 = load i32, ptr %7, align 8, !tbaa !30
  %46 = zext i32 %45 to i64
  %47 = getelementptr inbounds nuw i32, ptr %3, i64 %46
  %48 = load i32, ptr %47, align 4, !tbaa !31
  %49 = getelementptr inbounds nuw i8, ptr %0, i64 344
  %50 = load ptr, ptr %49, align 8, !tbaa !24
  %51 = sext i32 %48 to i64
  %52 = getelementptr inbounds ptr, ptr %50, i64 %51
  %53 = load ptr, ptr %52, align 8, !tbaa !25
  %54 = tail call ptr @cuddBddIteRecur(ptr noundef %0, ptr noundef %53, ptr noundef nonnull %24, ptr noundef nonnull %35) #7
  %55 = icmp eq ptr %54, null
  br i1 %55, label %56, label %57

56:                                               ; preds = %38
  tail call void @Cudd_IterDerefBdd(ptr noundef nonnull %0, ptr noundef nonnull %24) #7
  tail call void @Cudd_IterDerefBdd(ptr noundef nonnull %0, ptr noundef nonnull %35) #7
  br label %76

57:                                               ; preds = %38
  %58 = ptrtoint ptr %54 to i64
  %59 = and i64 %58, -2
  %60 = inttoptr i64 %59 to ptr
  %61 = getelementptr inbounds nuw i8, ptr %60, i64 4
  %62 = load i32, ptr %61, align 4, !tbaa !33
  %63 = add i32 %62, 1
  store i32 %63, ptr %61, align 4, !tbaa !33
  tail call void @Cudd_IterDerefBdd(ptr noundef nonnull %0, ptr noundef nonnull %24) #7
  tail call void @Cudd_IterDerefBdd(ptr noundef nonnull %0, ptr noundef nonnull %35) #7
  %64 = load i32, ptr %11, align 4, !tbaa !33
  %.not61 = icmp eq i32 %64, 1
  br i1 %.not61, label %.critedge, label %65

65:                                               ; preds = %57
  %66 = zext i32 %64 to i64
  %67 = add nsw i64 %66, -1
  %68 = tail call i32 @cuddHashTableInsert1(ptr noundef nonnull %1, ptr noundef nonnull %7, ptr noundef nonnull %54, i64 noundef %67) #7
  %.not62.not = icmp eq i32 %68, 0
  br i1 %.not62.not, label %69, label %.critedge

69:                                               ; preds = %65
  tail call void @Cudd_IterDerefBdd(ptr noundef nonnull %0, ptr noundef nonnull %54) #7
  br label %76

.critedge:                                        ; preds = %65, %57
  %70 = load i32, ptr %61, align 4, !tbaa !33
  %71 = add i32 %70, -1
  store i32 %71, ptr %61, align 4, !tbaa !33
  %72 = icmp ne ptr %2, %7
  %73 = zext i1 %72 to i64
  %74 = xor i64 %58, %73
  %75 = inttoptr i64 %74 to ptr
  br label %76

76:                                               ; preds = %69, %21, %4, %.critedge, %56, %37, %15
  %.0 = phi ptr [ %20, %15 ], [ null, %37 ], [ null, %56 ], [ %75, %.critedge ], [ null, %69 ], [ %2, %4 ], [ null, %21 ]
  ret ptr %.0
}